target datalayout = "e-m:e-p270:32:32-p271:32:32-p272:64:64-i64:64-i128:128-f80:128-n8:16:32:64-S128"
target triple = "x86_64-pc-linux-gnu"

%struct.mi_heap_s = type { ptr, ptr, i64, i32, i64, [2 x i64], %struct.mi_random_cxt_s, i64, i64, i64, ptr, i8, i8, [129 x ptr], [75 x %struct.mi_page_queue_s] }
%struct.mi_random_cxt_s = type { [16 x i32], [16 x i32], i32, i8 }
%struct.mi_page_queue_s = type { ptr, ptr, i64 }
%struct.mi_page_s = type { i8, i8, i16, i16, %union.mi_page_flags_s, i8, ptr, ptr, i16, i8, i8, i64, ptr, i64, i64, ptr, ptr }
%union.mi_page_flags_s = type { i8 }
%struct.mi_block_s = type { i64 }

; Function Attrs: inlinehint nounwind uwtable
define internal i64 @mi_tf_make(ptr noundef %0, i32 noundef %1) #0 {
  %3 = alloca ptr, align 8
  %4 = alloca i32, align 4
  store ptr %0, ptr %3, align 8, !tbaa !18
  store i32 %1, ptr %4, align 4, !tbaa !49
  %5 = load ptr, ptr %3, align 8, !tbaa !18
  %6 = ptrtoint ptr %5 to i64
  %7 = load i32, ptr %4, align 4, !tbaa !49
  %8 = zext i32 %7 to i64
  %9 = or i64 %6, %8
  ret i64 %9
}

; Function Attrs: inlinehint nounwind uwtable
define internal void @mi_block_set_nextx(ptr noundef %0, ptr noundef %1, ptr noundef %2, ptr noundef %3) #0 {
  %5 = alloca ptr, align 8
  %6 = alloca ptr, align 8
  %7 = alloca ptr, align 8
  %8 = alloca ptr, align 8
  store ptr %0, ptr %5, align 8, !tbaa !7
  store ptr %1, ptr %6, align 8, !tbaa !18
  store ptr %2, ptr %7, align 8, !tbaa !18
  store ptr %3, ptr %8, align 8, !tbaa !37
  %9 = load ptr, ptr %7, align 8, !tbaa !18
  %10 = ptrtoint ptr %9 to i64
  %11 = load ptr, ptr %6, align 8, !tbaa !18
  %12 = getelementptr inbounds nuw %struct.mi_block_s, ptr %11, i32 0, i32 0
  store i64 %10, ptr %12, align 8, !tbaa !35
  ret void
}

; Function Attrs: inlinehint nounwind uwtable
define internal i64 @mi_tf_set_block(i64 noundef %0, ptr noundef %1) #0 {
  %3 = alloca i64, align 8
  %4 = alloca ptr, align 8
  store i64 %0, ptr %3, align 8, !tbaa !3
  store ptr %1, ptr %4, align 8, !tbaa !18
  %5 = load ptr, ptr %4, align 8, !tbaa !18
  %6 = load i64, ptr %3, align 8, !tbaa !3
  %7 = call i32 @mi_tf_delayed(i64 noundef %6) #14
  %8 = call i64 @mi_tf_make(ptr noundef %5, i32 noundef %7) #14
  ret i64 %8
}

; Function Attrs: inlinehint nounwind uwtable
define internal void @mi_block_set_next(ptr noundef %0, ptr noundef %1, ptr noundef %2) #0 {
  %4 = alloca ptr, align 8
  %5 = alloca ptr, align 8
  %6 = alloca ptr, align 8
  store ptr %0, ptr %4, align 8, !tbaa !13
  store ptr %1, ptr %5, align 8, !tbaa !18
  store ptr %2, ptr %6, align 8, !tbaa !18
  %7 = load ptr, ptr %4, align 8, !tbaa !13
  %8 = load ptr, ptr %5, align 8, !tbaa !18
  %9 = load ptr, ptr %6, align 8, !tbaa !18
  call void @mi_block_set_nextx(ptr noundef %7, ptr noundef %8, ptr noundef %9, ptr noundef null) #14
  ret void
}

; Function Attrs: inlinehint nounwind uwtable
define internal ptr @mi_tf_block(i64 noundef %0) #0 {
  %2 = alloca i64, align 8
  store i64 %0, ptr %2, align 8, !tbaa !3
  %3 = load i64, ptr %2, align 8, !tbaa !3
  %4 = and i64 %3, -4
  %5 = inttoptr i64 %4 to ptr
  ret ptr %5
}

; Function Attrs: inlinehint nounwind uwtable
define internal i64 @mi_tf_set_delayed(i64 noundef %0, i32 noundef %1) #0 {
  %3 = alloca i64, align 8
  %4 = alloca i32, align 4
  store i64 %0, ptr %3, align 8, !tbaa !3
  store i32 %1, ptr %4, align 4, !tbaa !49
  %5 = load i64, ptr %3, align 8, !tbaa !3
  %6 = call ptr @mi_tf_block(i64 noundef %5) #14
  %7 = load i32, ptr %4, align 4, !tbaa !49
  %8 = call i64 @mi_tf_make(ptr noundef %6, i32 noundef %7) #14
  ret i64 %8
}

; Function Attrs: inlinehint nounwind uwtable
define internal i32 @mi_tf_delayed(i64 noundef %0) #0 {
  %2 = alloca i64, align 8
  store i64 %0, ptr %2, align 8, !tbaa !3
  %3 = load i64, ptr %2, align 8, !tbaa !3
  %4 = and i64 %3, 3
  %5 = trunc i64 %4 to i32
  ret i32 %5
}

; Function Attrs: noinline nounwind uwtable
define internal void @mi_free_block_delayed_mt(ptr noundef %0, ptr noundef %1) #7 {
  %3 = alloca ptr, align 8
  %4 = alloca ptr, align 8
  %5 = alloca i64, align 8
  %6 = alloca i8, align 1
  %7 = alloca i64, align 8
  %8 = alloca i64, align 8
  %9 = alloca i64, align 8
  %10 = alloca i8, align 1
  %11 = alloca ptr, align 8
  %12 = alloca i64, align 8
  %13 = alloca ptr, align 8
  %14 = alloca ptr, align 8
  %15 = alloca ptr, align 8
  %16 = alloca i8, align 1
  %17 = alloca i64, align 8
  %18 = alloca i64, align 8
  %19 = alloca i8, align 1
  store ptr %0, ptr %3, align 8, !tbaa !13
  store ptr %1, ptr %4, align 8, !tbaa !18
  call void @llvm.lifetime.start.p0(i64 8, ptr %5) #15
  call void @llvm.lifetime.start.p0(i64 1, ptr %6) #15
  call void @llvm.lifetime.start.p0(i64 8, ptr %7) #15
  %20 = load ptr, ptr %3, align 8, !tbaa !13
  %21 = getelementptr inbounds nuw %struct.mi_page_s, ptr %20, i32 0, i32 13
  %22 = load atomic i64, ptr %21 monotonic, align 8
  store i64 %22, ptr %8, align 8
  %23 = load i64, ptr %8, align 8, !tbaa !3
  store i64 %23, ptr %7, align 8, !tbaa !3
  br label %24

24:                                               ; preds = %59, %2
  %25 = load i64, ptr %7, align 8, !tbaa !3
  %26 = call i32 @mi_tf_delayed(i64 noundef %25) #14
  %27 = icmp eq i32 %26, 0
  %28 = zext i1 %27 to i8
  store i8 %28, ptr %6, align 1, !tbaa !11
  %29 = load i8, ptr %6, align 1, !tbaa !11, !range !15, !noundef !16
  %30 = trunc i8 %29 to i1
  %31 = xor i1 %30, true
  %32 = xor i1 %31, true
  %33 = zext i1 %32 to i32
  %34 = sext i32 %33 to i64
  %35 = call i64 @llvm.expect.i64(i64 %34, i64 0)
  %36 = icmp ne i64 %35, 0
  br i1 %36, label %37, label %40

37:                                               ; preds = %24
  %38 = load i64, ptr %7, align 8, !tbaa !3
  %39 = call i64 @mi_tf_set_delayed(i64 noundef %38, i32 noundef 1) #14
  store i64 %39, ptr %5, align 8, !tbaa !3
  br label %48

40:                                               ; preds = %24
  %41 = load ptr, ptr %3, align 8, !tbaa !13
  %42 = load ptr, ptr %4, align 8, !tbaa !18
  %43 = load i64, ptr %7, align 8, !tbaa !3
  %44 = call ptr @mi_tf_block(i64 noundef %43) #14
  call void @mi_block_set_next(ptr noundef %41, ptr noundef %42, ptr noundef %44) #14
  %45 = load i64, ptr %7, align 8, !tbaa !3
  %46 = load ptr, ptr %4, align 8, !tbaa !18
  %47 = call i64 @mi_tf_set_block(i64 noundef %45, ptr noundef %46) #14
  store i64 %47, ptr %5, align 8, !tbaa !3
  br label %48

48:                                               ; preds = %40, %37
  br label %49

49:                                               ; preds = %48
  %50 = load ptr, ptr %3, align 8, !tbaa !13
  %51 = getelementptr inbounds nuw %struct.mi_page_s, ptr %50, i32 0, i32 13
  %52 = load i64, ptr %5, align 8, !tbaa !3
  store i64 %52, ptr %9, align 8, !tbaa !3
  %53 = load i64, ptr %7, align 8
  %54 = load i64, ptr %9, align 8
  %55 = cmpxchg weak ptr %51, i64 %53, i64 %54 release monotonic, align 8
  %56 = extractvalue { i64, i1 } %55, 0
  %57 = extractvalue { i64, i1 } %55, 1
  br i1 %57, label %59, label %58

58:                                               ; preds = %49
  store i64 %56, ptr %7, align 8
  br label %59

59:                                               ; preds = %58, %49
  %60 = zext i1 %57 to i8
  store i8 %60, ptr %10, align 1, !tbaa !11
  %61 = load i8, ptr %10, align 1, !tbaa !11, !range !15, !noundef !16
  %62 = trunc i8 %61 to i1
  %63 = xor i1 %62, true
  br i1 %63, label %24, label %64, !llvm.loop !46

64:                                               ; preds = %59
  %65 = load i8, ptr %6, align 1, !tbaa !11, !range !15, !noundef !16
  %66 = trunc i8 %65 to i1
  %67 = xor i1 %66, true
  %68 = xor i1 %67, true
  %69 = zext i1 %68 to i32
  %70 = sext i32 %69 to i64
  %71 = call i64 @llvm.expect.i64(i64 %70, i64 0)
  %72 = icmp ne i64 %71, 0
  br i1 %72, label %73, label %134

73:                                               ; preds = %64
  call void @llvm.lifetime.start.p0(i64 8, ptr %11) #15
  %74 = load ptr, ptr %3, align 8, !tbaa !13
  %75 = getelementptr inbounds nuw %struct.mi_page_s, ptr %74, i32 0, i32 14
  %76 = load atomic i64, ptr %75 acquire, align 8
  store i64 %76, ptr %12, align 8
  %77 = load i64, ptr %12, align 8, !tbaa !3
  %78 = inttoptr i64 %77 to ptr
  store ptr %78, ptr %11, align 8, !tbaa !32
  %79 = load ptr, ptr %11, align 8, !tbaa !32
  %80 = icmp ne ptr %79, null
  br i1 %80, label %81, label %109

81:                                               ; preds = %73
  call void @llvm.lifetime.start.p0(i64 8, ptr %13) #15
  %82 = load ptr, ptr %11, align 8, !tbaa !32
  %83 = getelementptr inbounds nuw %struct.mi_heap_s, ptr %82, i32 0, i32 1
  %84 = load atomic i64, ptr %83 monotonic, align 8
  store i64 %84, ptr %14, align 8
  %85 = load ptr, ptr %14, align 8, !tbaa !18
  store ptr %85, ptr %13, align 8, !tbaa !18
  br label %86

86:                                               ; preds = %103, %81
  %87 = load ptr, ptr %11, align 8, !tbaa !32
  %88 = load ptr, ptr %4, align 8, !tbaa !18
  %89 = load ptr, ptr %13, align 8, !tbaa !18
  %90 = load ptr, ptr %11, align 8, !tbaa !32
  %91 = getelementptr inbounds nuw %struct.mi_heap_s, ptr %90, i32 0, i32 5
  %92 = getelementptr inbounds [2 x i64], ptr %91, i64 0, i64 0
  call void @mi_block_set_nextx(ptr noundef %87, ptr noundef %88, ptr noundef %89, ptr noundef %92) #14
  br label %93

93:                                               ; preds = %86
  %94 = load ptr, ptr %11, align 8, !tbaa !32
  %95 = getelementptr inbounds nuw %struct.mi_heap_s, ptr %94, i32 0, i32 1
  %96 = load ptr, ptr %4, align 8, !tbaa !18
  store ptr %96, ptr %15, align 8, !tbaa !18
  %97 = load i64, ptr %13, align 8
  %98 = load i64, ptr %15, align 8
  %99 = cmpxchg weak ptr %95, i64 %97, i64 %98 release monotonic, align 8
  %100 = extractvalue { i64, i1 } %99, 0
  %101 = extractvalue { i64, i1 } %99, 1
  br i1 %101, label %103, label %102

102:                                              ; preds = %93
  store i64 %100, ptr %13, align 8
  br label %103

103:                                              ; preds = %102, %93
  %104 = zext i1 %101 to i8
  store i8 %104, ptr %16, align 1, !tbaa !11
  %105 = load i8, ptr %16, align 1, !tbaa !11, !range !15, !noundef !16
  %106 = trunc i8 %105 to i1
  %107 = xor i1 %106, true
  br i1 %107, label %86, label %108, !llvm.loop !47

108:                                              ; preds = %103
  call void @llvm.lifetime.end.p0(i64 8, ptr %13) #15
  br label %109

109:                                              ; preds = %108, %73
  %110 = load ptr, ptr %3, align 8, !tbaa !13
  %111 = getelementptr inbounds nuw %struct.mi_page_s, ptr %110, i32 0, i32 13
  %112 = load atomic i64, ptr %111 monotonic, align 8
  store i64 %112, ptr %17, align 8
  %113 = load i64, ptr %17, align 8, !tbaa !3
  store i64 %113, ptr %7, align 8, !tbaa !3
  br label %114

114:                                              ; preds = %128, %109
  %115 = load i64, ptr %7, align 8, !tbaa !3
  store i64 %115, ptr %5, align 8, !tbaa !3
  %116 = load i64, ptr %7, align 8, !tbaa !3
  %117 = call i64 @mi_tf_set_delayed(i64 noundef %116, i32 noundef 2) #14
  store i64 %117, ptr %5, align 8, !tbaa !3
  br label %118

118:                                              ; preds = %114
  %119 = load ptr, ptr %3, align 8, !tbaa !13
  %120 = getelementptr inbounds nuw %struct.mi_page_s, ptr %119, i32 0, i32 13
  %121 = load i64, ptr %5, align 8, !tbaa !3
  store i64 %121, ptr %18, align 8, !tbaa !3
  %122 = load i64, ptr %7, align 8
  %123 = load i64, ptr %18, align 8
  %124 = cmpxchg weak ptr %120, i64 %122, i64 %123 release monotonic, align 8
  %125 = extractvalue { i64, i1 } %124, 0
  %126 = extractvalue { i64, i1 } %124, 1
  br i1 %126, label %128, label %127

127:                                              ; preds = %118
  store i64 %125, ptr %7, align 8
  br label %128

128:                                              ; preds = %127, %118
  %129 = zext i1 %126 to i8
  store i8 %129, ptr %19, align 1, !tbaa !11
  %130 = load i8, ptr %19, align 1, !tbaa !11, !range !15, !noundef !16
  %131 = trunc i8 %130 to i1
  %132 = xor i1 %131, true
  br i1 %132, label %114, label %133, !llvm.loop !48

133:                                              ; preds = %128
  call void @llvm.lifetime.end.p0(i64 8, ptr %11) #15
  br label %134

134:                                              ; preds = %133, %64
  call void @llvm.lifetime.end.p0(i64 8, ptr %7) #15
  call void @llvm.lifetime.end.p0(i64 1, ptr %6) #15
  call void @llvm.lifetime.end.p0(i64 8, ptr %5) #15
  ret void
}