; Function Attrs: nofree noinline norecurse nounwind memory(readwrite, inaccessiblemem: none) uwtable
define internal fastcc void @mi_free_block_delayed_mt(ptr noundef captures(none) %0, ptr noundef %1) unnamed_addr #10 {
  %3 = getelementptr inbounds nuw i8, ptr %0, i64 48
  %4 = load atomic i64, ptr %3 monotonic, align 8
  %5 = ptrtoint ptr %1 to i64
  br label %6

6:                                                ; preds = %.backedge, %2
  %.038 = phi i64 [ %4, %2 ], [ %.038.be, %.backedge ]
  %7 = and i64 %.038, 3
  %8 = icmp eq i64 %7, 0
  br i1 %8, label %9, label %.thread, !prof !17

9:                                                ; preds = %6
  %10 = or disjoint i64 %.038, 1
  %11 = cmpxchg weak ptr %3, i64 %.038, i64 %10 release monotonic, align 8
  %12 = extractvalue { i64, i1 } %11, 1
  br i1 %12, label %17, label %.backedge

.backedge:                                        ; preds = %9, %.thread
  %.pn = phi { i64, i1 } [ %11, %9 ], [ %15, %.thread ]
  %.038.be = extractvalue { i64, i1 } %.pn, 0
  br label %6, !llvm.loop !42

.thread:                                          ; preds = %6
  %13 = and i64 %.038, -4
  store i64 %13, ptr %1, align 8, !tbaa !18
  %14 = or i64 %7, %5
  %15 = cmpxchg weak ptr %3, i64 %.038, i64 %14 release monotonic, align 8
  %16 = extractvalue { i64, i1 } %15, 1
  br i1 %16, label %.thread45, label %.backedge

17:                                               ; preds = %9
  %18 = getelementptr inbounds nuw i8, ptr %0, i64 56
  %19 = load atomic i64, ptr %18 acquire, align 8
  %.not = icmp eq i64 %19, 0
  br i1 %.not, label %.loopexit, label %20

20:                                               ; preds = %17
  %21 = inttoptr i64 %19 to ptr
  %22 = getelementptr inbounds nuw i8, ptr %21, i64 8
  %23 = load atomic i64, ptr %22 monotonic, align 8
  br label %24

24:                                               ; preds = %24, %20
  %.039.in = phi i64 [ %23, %20 ], [ %27, %24 ]
  store i64 %.039.in, ptr %1, align 8, !tbaa !18
  %25 = cmpxchg weak ptr %22, i64 %.039.in, i64 %5 release monotonic, align 8
  %26 = extractvalue { i64, i1 } %25, 1
  %27 = extractvalue { i64, i1 } %25, 0
  br i1 %26, label %.loopexit, label %24, !llvm.loop !43

.loopexit:                                        ; preds = %24, %17
  %28 = load atomic i64, ptr %3 monotonic, align 8
  br label %29

29:                                               ; preds = %29, %.loopexit
  %.2 = phi i64 [ %28, %.loopexit ], [ %34, %29 ]
  %30 = and i64 %.2, -4
  %31 = or disjoint i64 %30, 2
  %32 = cmpxchg weak ptr %3, i64 %.2, i64 %31 release monotonic, align 8
  %33 = extractvalue { i64, i1 } %32, 1
  %34 = extractvalue { i64, i1 } %32, 0
  br i1 %33, label %.thread45, label %29, !llvm.loop !44

.thread45:                                        ; preds = %.thread, %29
  ret void
}